; ModuleID = '21/378.c'
source_filename = "21/378.c"
target datalayout = "e-m:e-p270:32:32-p271:32:32-p272:64:64-i64:64-f80:128-n8:16:32:64-S128"
target triple = "x86_64-pc-linux-gnu"

@.str = private unnamed_addr constant [3 x i8] c"%d\00", align 1
@.str.1 = private unnamed_addr constant [4 x i8] c"%lf\00", align 1
@.str.2 = private unnamed_addr constant [6 x i8] c"%1.0f\00", align 1
@.str.3 = private unnamed_addr constant [7 x i8] c",%1.0f\00", align 1
@.str.4 = private unnamed_addr constant [2 x i8] c"\0A\00", align 1

; Function Attrs: noinline nounwind uwtable
define dso_local void @main() #0 {
  %1 = alloca i32, align 4
  %2 = alloca i32, align 4
  %3 = alloca i32, align 4
  %4 = alloca i32, align 4
  %5 = alloca [301 x double], align 16
  %6 = alloca double, align 8
  %7 = alloca double, align 8
  store i32 0, i32* %4, align 4
  store double 0.000000e+00, double* %7, align 8
  %8 = call i32 (i8*, ...) @__isoc99_scanf(i8* getelementptr inbounds ([3 x i8], [3 x i8]* @.str, i64 0, i64 0), i32* %1)
  store i32 0, i32* %2, align 4
  br label %9

9:                                                ; preds = %24, %0
  %10 = load i32, i32* %2, align 4
  %11 = load i32, i32* %1, align 4
  %12 = icmp slt i32 %10, %11
  br i1 %12, label %13, label %27

13:                                               ; preds = %9
  %14 = load i32, i32* %2, align 4
  %15 = sext i32 %14 to i64
  %16 = getelementptr inbounds [301 x double], [301 x double]* %5, i64 0, i64 %15
  %17 = call i32 (i8*, ...) @__isoc99_scanf(i8* getelementptr inbounds ([4 x i8], [4 x i8]* @.str.1, i64 0, i64 0), double* %16)
  %18 = load i32, i32* %2, align 4
  %19 = sext i32 %18 to i64
  %20 = getelementptr inbounds [301 x double], [301 x double]* %5, i64 0, i64 %19
  %21 = load double, double* %20, align 8
  %22 = load double, double* %7, align 8
  %23 = fadd double %22, %21
  store double %23, double* %7, align 8
  br label %24

24:                                               ; preds = %13
  %25 = load i32, i32* %2, align 4
  %26 = add nsw i32 %25, 1
  store i32 %26, i32* %2, align 4
  br label %9

27:                                               ; preds = %9
  %28 = load double, double* %7, align 8
  %29 = load i32, i32* %1, align 4
  %30 = sitofp i32 %29 to double
  %31 = fdiv double %28, %30
  store double %31, double* %7, align 8
  %32 = getelementptr inbounds [301 x double], [301 x double]* %5, i64 0, i64 0
  %33 = load double, double* %32, align 16
  %34 = load double, double* %7, align 8
  %35 = fsub double %33, %34
  %36 = call double @llvm.fabs.f64(double %35)
  store double %36, double* %6, align 8
  store i32 1, i32* %2, align 4
  br label %37

37:                                               ; preds = %65, %27
  %38 = load i32, i32* %2, align 4
  %39 = load i32, i32* %1, align 4
  %40 = icmp slt i32 %38, %39
  br i1 %40, label %41, label %68

41:                                               ; preds = %37
  %42 = load i32, i32* %2, align 4
  %43 = sext i32 %42 to i64
  %44 = getelementptr inbounds [301 x double], [301 x double]* %5, i64 0, i64 %43
  %45 = load double, double* %44, align 8
  %46 = load double, double* %7, align 8
  %47 = fsub double %45, %46
  %48 = call double @llvm.fabs.f64(double %47)
  %49 = load double, double* %6, align 8
  %50 = fcmp ogt double %48, %49
  br i1 %50, label %51, label %59

51:                                               ; preds = %41
  %52 = load i32, i32* %2, align 4
  %53 = sext i32 %52 to i64
  %54 = getelementptr inbounds [301 x double], [301 x double]* %5, i64 0, i64 %53
  %55 = load double, double* %54, align 8
  %56 = load double, double* %7, align 8
  %57 = fsub double %55, %56
  %58 = call double @llvm.fabs.f64(double %57)
  br label %61

59:                                               ; preds = %41
  %60 = load double, double* %6, align 8
  br label %61

61:                                               ; preds = %59, %51
  %62 = phi double [ %58, %51 ], [ %60, %59 ]
  store double %62, double* %6, align 8
  %63 = load i32, i32* %4, align 4
  %64 = add nsw i32 %63, 1
  store i32 %64, i32* %4, align 4
  br label %65

65:                                               ; preds = %61
  %66 = load i32, i32* %2, align 4
  %67 = add nsw i32 %66, 1
  store i32 %67, i32* %2, align 4
  br label %37

68:                                               ; preds = %37
  store i32 0, i32* %2, align 4
  br label %69

69:                                               ; preds = %92, %68
  %70 = load i32, i32* %2, align 4
  %71 = load i32, i32* %1, align 4
  %72 = icmp slt i32 %70, %71
  br i1 %72, label %73, label %95

73:                                               ; preds = %69
  %74 = load i32, i32* %2, align 4
  %75 = sext i32 %74 to i64
  %76 = getelementptr inbounds [301 x double], [301 x double]* %5, i64 0, i64 %75
  %77 = load double, double* %76, align 8
  %78 = load double, double* %7, align 8
  %79 = fsub double %77, %78
  %80 = call double @llvm.fabs.f64(double %79)
  %81 = load double, double* %6, align 8
  %82 = fsub double %80, %81
  %83 = call double @llvm.fabs.f64(double %82)
  %84 = fcmp olt double %83, 1.000000e-05
  br i1 %84, label %85, label %91

85:                                               ; preds = %73
  %86 = load i32, i32* %2, align 4
  %87 = sext i32 %86 to i64
  %88 = getelementptr inbounds [301 x double], [301 x double]* %5, i64 0, i64 %87
  %89 = load double, double* %88, align 8
  %90 = call i32 (i8*, ...) @printf(i8* getelementptr inbounds ([6 x i8], [6 x i8]* @.str.2, i64 0, i64 0), double %89)
  br label %95

91:                                               ; preds = %73
  br label %92

92:                                               ; preds = %91
  %93 = load i32, i32* %2, align 4
  %94 = add nsw i32 %93, 1
  store i32 %94, i32* %2, align 4
  br label %69

95:                                               ; preds = %85, %69
  %96 = load i32, i32* %2, align 4
  %97 = add nsw i32 %96, 1
  store i32 %97, i32* %3, align 4
  br label %98

98:                                               ; preds = %121, %95
  %99 = load i32, i32* %3, align 4
  %100 = load i32, i32* %1, align 4
  %101 = icmp slt i32 %99, %100
  br i1 %101, label %102, label %124

102:                                              ; preds = %98
  %103 = load i32, i32* %3, align 4
  %104 = sext i32 %103 to i64
  %105 = getelementptr inbounds [301 x double], [301 x double]* %5, i64 0, i64 %104
  %106 = load double, double* %105, align 8
  %107 = load double, double* %7, align 8
  %108 = fsub double %106, %107
  %109 = call double @llvm.fabs.f64(double %108)
  %110 = load double, double* %6, align 8
  %111 = fsub double %109, %110
  %112 = call double @llvm.fabs.f64(double %111)
  %113 = fcmp olt double %112, 1.000000e-05
  br i1 %113, label %114, label %120

114:                                              ; preds = %102
  %115 = load i32, i32* %3, align 4
  %116 = sext i32 %115 to i64
  %117 = getelementptr inbounds [301 x double], [301 x double]* %5, i64 0, i64 %116
  %118 = load double, double* %117, align 8
  %119 = call i32 (i8*, ...) @printf(i8* getelementptr inbounds ([7 x i8], [7 x i8]* @.str.3, i64 0, i64 0), double %118)
  br label %120

120:                                              ; preds = %114, %102
  br label %121

121:                                              ; preds = %120
  %122 = load i32, i32* %3, align 4
  %123 = add nsw i32 %122, 1
  store i32 %123, i32* %3, align 4
  br label %98

124:                                              ; preds = %98
  %125 = call i32 (i8*, ...) @printf(i8* getelementptr inbounds ([2 x i8], [2 x i8]* @.str.4, i64 0, i64 0))
  ret void
}

declare dso_local i32 @__isoc99_scanf(i8*, ...) #1

; Function Attrs: nounwind readnone speculatable willreturn
declare double @llvm.fabs.f64(double) #2

declare dso_local i32 @printf(i8*, ...) #1


!llvm.module.flags = !{!0}
!llvm.ident = !{!1}

!0 = !{i32 1, !"wchar_size", i32 4}
!1 = !{!"clang version 10.0.0-4ubuntu1 "}
